target datalayout = "e-m:e-p270:32:32-p271:32:32-p272:64:64-i64:64-i128:128-f80:128-n8:16:32:64-S128"
target triple = "x86_64-pc-linux-gnu"

%struct.SurfaceDataRasInfo = type { %struct.SurfaceDataBounds, ptr, i32, i32, i32, i32, ptr, ptr, ptr, ptr, ptr, ptr, i32, %union.anon.0 }
%struct.SurfaceDataBounds = type { i32, i32, i32, i32 }
%union.anon.0 = type { ptr, [56 x i8] }

; Function Attrs: nounwind uwtable
define hidden void @ByteIndexedToIntArgbConvert(ptr noundef %0, ptr noundef %1, i32 noundef %2, i32 noundef %3, ptr noundef %4, ptr noundef %5, ptr noundef %6, ptr noundef %7) #1 {
  %9 = alloca ptr, align 8
  %10 = alloca ptr, align 8
  %11 = alloca i32, align 4
  %12 = alloca i32, align 4
  %13 = alloca ptr, align 8
  %14 = alloca ptr, align 8
  %15 = alloca ptr, align 8
  %16 = alloca ptr, align 8
  %17 = alloca ptr, align 8
  %18 = alloca ptr, align 8
  %19 = alloca ptr, align 8
  %20 = alloca i32, align 4
  %21 = alloca i32, align 4
  %22 = alloca i32, align 4
  %23 = alloca i32, align 4
  store ptr %0, ptr %9, align 8
  store ptr %1, ptr %10, align 8
  store i32 %2, ptr %11, align 4
  store i32 %3, ptr %12, align 4
  store ptr %4, ptr %13, align 8
  store ptr %5, ptr %14, align 8
  store ptr %6, ptr %15, align 8
  store ptr %7, ptr %16, align 8
  %24 = load ptr, ptr %13, align 8
  %25 = getelementptr inbounds %struct.SurfaceDataRasInfo, ptr %24, i32 0, i32 6
  %26 = load ptr, ptr %25, align 8
  store ptr %26, ptr %17, align 8
  br label %27

27:                                               ; preds = %8
  %28 = load ptr, ptr %9, align 8
  store ptr %28, ptr %18, align 8
  %29 = load ptr, ptr %10, align 8
  store ptr %29, ptr %19, align 8
  %30 = load ptr, ptr %13, align 8
  %31 = getelementptr inbounds %struct.SurfaceDataRasInfo, ptr %30, i32 0, i32 4
  %32 = load i32, ptr %31, align 8
  store i32 %32, ptr %20, align 4
  %33 = load ptr, ptr %14, align 8
  %34 = getelementptr inbounds %struct.SurfaceDataRasInfo, ptr %33, i32 0, i32 4
  %35 = load i32, ptr %34, align 8
  store i32 %35, ptr %21, align 4
  %36 = load i32, ptr %11, align 4
  %37 = mul i32 %36, 1
  %38 = load i32, ptr %20, align 4
  %39 = sub i32 %38, %37
  store i32 %39, ptr %20, align 4
  %40 = load i32, ptr %11, align 4
  %41 = mul i32 %40, 4
  %42 = load i32, ptr %21, align 4
  %43 = sub i32 %42, %41
  store i32 %43, ptr %21, align 4
  br label %44

44:                                               ; preds = %84, %27
  %45 = load i32, ptr %11, align 4
  store i32 %45, ptr %22, align 4
  br label %46

46:                                               ; preds = %67, %44
  br label %47

47:                                               ; preds = %46
  %48 = load ptr, ptr %17, align 8
  %49 = load ptr, ptr %18, align 8
  %50 = getelementptr inbounds i8, ptr %49, i64 0
  %51 = load i8, ptr %50, align 1
  %52 = zext i8 %51 to i64
  %53 = getelementptr inbounds i32, ptr %48, i64 %52
  %54 = load i32, ptr %53, align 4
  store i32 %54, ptr %23, align 4
  %55 = load i32, ptr %23, align 4
  %56 = load ptr, ptr %19, align 8
  %57 = getelementptr inbounds i32, ptr %56, i64 0
  store i32 %55, ptr %57, align 4
  br label %58

58:                                               ; preds = %47
  %59 = load ptr, ptr %18, align 8
  %60 = ptrtoint ptr %59 to i64
  %61 = add nsw i64 %60, 1
  %62 = inttoptr i64 %61 to ptr
  store ptr %62, ptr %18, align 8
  %63 = load ptr, ptr %19, align 8
  %64 = ptrtoint ptr %63 to i64
  %65 = add nsw i64 %64, 4
  %66 = inttoptr i64 %65 to ptr
  store ptr %66, ptr %19, align 8
  br label %67

67:                                               ; preds = %58
  %68 = load i32, ptr %22, align 4
  %69 = add i32 %68, -1
  store i32 %69, ptr %22, align 4
  %70 = icmp ugt i32 %69, 0
  br i1 %70, label %46, label %71, !llvm.loop !6

71:                                               ; preds = %67
  %72 = load ptr, ptr %18, align 8
  %73 = ptrtoint ptr %72 to i64
  %74 = load i32, ptr %20, align 4
  %75 = sext i32 %74 to i64
  %76 = add nsw i64 %73, %75
  %77 = inttoptr i64 %76 to ptr
  store ptr %77, ptr %18, align 8
  %78 = load ptr, ptr %19, align 8
  %79 = ptrtoint ptr %78 to i64
  %80 = load i32, ptr %21, align 4
  %81 = sext i32 %80 to i64
  %82 = add nsw i64 %79, %81
  %83 = inttoptr i64 %82 to ptr
  store ptr %83, ptr %19, align 8
  br label %84

84:                                               ; preds = %71
  %85 = load i32, ptr %12, align 4
  %86 = add i32 %85, -1
  store i32 %86, ptr %12, align 4
  %87 = icmp ugt i32 %86, 0
  br i1 %87, label %44, label %88, !llvm.loop !8

88:                                               ; preds = %84
  br label %89

89:                                               ; preds = %88
  ret void
}