; Function Attrs: nofree norecurse nosync nounwind memory(readwrite, inaccessiblemem: none) uwtable
define hidden void @ByteIndexedToIntArgbConvert(ptr noundef %0, ptr noundef %1, i32 noundef %2, i32 noundef %3, ptr nocapture noundef readonly %4, ptr nocapture noundef readonly %5, ptr nocapture readnone %6, ptr nocapture readnone %7) #1 {
  %9 = getelementptr inbounds i8, ptr %4, i64 40
  %10 = load ptr, ptr %9, align 8
  %11 = getelementptr inbounds i8, ptr %4, i64 32
  %12 = load i32, ptr %11, align 8
  %13 = getelementptr inbounds i8, ptr %5, i64 32
  %14 = load i32, ptr %13, align 8
  %15 = sub i32 %12, %2
  %16 = shl i32 %2, 2
  %17 = sub i32 %14, %16
  %18 = sext i32 %15 to i64
  %19 = sext i32 %17 to i64
  br label %20

20:                                               ; preds = %33, %8
  %.023 = phi ptr [ %0, %8 ], [ %35, %33 ]
  %.022 = phi ptr [ %1, %8 ], [ %37, %33 ]
  %.0 = phi i32 [ %3, %8 ], [ %38, %33 ]
  br label %21

21:                                               ; preds = %21, %20
  %.124 = phi ptr [ %.023, %20 ], [ %28, %21 ]
  %.1 = phi ptr [ %.022, %20 ], [ %31, %21 ]
  %.021 = phi i32 [ %2, %20 ], [ %32, %21 ]
  %22 = load i8, ptr %.124, align 1
  %23 = zext i8 %22 to i64
  %24 = getelementptr inbounds i32, ptr %10, i64 %23
  %25 = load i32, ptr %24, align 4
  store i32 %25, ptr %.1, align 4
  %26 = ptrtoint ptr %.124 to i64
  %27 = add nsw i64 %26, 1
  %28 = inttoptr i64 %27 to ptr
  %29 = ptrtoint ptr %.1 to i64
  %30 = add nsw i64 %29, 4
  %31 = inttoptr i64 %30 to ptr
  %32 = add i32 %.021, -1
  %.not = icmp eq i32 %32, 0
  br i1 %.not, label %33, label %21, !llvm.loop !6

33:                                               ; preds = %21
  %34 = add nsw i64 %27, %18
  %35 = inttoptr i64 %34 to ptr
  %36 = add nsw i64 %30, %19
  %37 = inttoptr i64 %36 to ptr
  %38 = add i32 %.0, -1
  %.not26 = icmp eq i32 %38, 0
  br i1 %.not26, label %39, label %20, !llvm.loop !8

39:                                               ; preds = %33
  ret void
}